; Function Attrs: nounwind uwtable
define internal noundef ptr @_curses_panel_panel_hide(ptr noundef readonly captures(none) %0, ptr noundef %1, ptr readnone captures(none) %2, i64 noundef %3, ptr noundef readonly %4) #0 {
  %.not = icmp eq i64 %3, 0
  br i1 %.not, label %6, label %9

6:                                                ; preds = %5
  %.not6 = icmp eq ptr %4, null
  br i1 %.not6, label %11, label %7

7:                                                ; preds = %6
  %8 = getelementptr i8, ptr %4, i64 16
  %.val = load i64, ptr %8, align 8, !tbaa !42
  %.not7 = icmp eq i64 %.val, 0
  br i1 %.not7, label %11, label %9

9:                                                ; preds = %7, %5
  %10 = load ptr, ptr @PyExc_TypeError, align 8, !tbaa !13
  tail call void @PyErr_SetString(ptr noundef %10, ptr noundef nonnull @.str.34) #4
  br label %_curses_panel_panel_hide_impl.exit

11:                                               ; preds = %7, %6
  %12 = tail call ptr @PyType_GetModuleState(ptr noundef %1) #4
  %13 = getelementptr inbounds nuw i8, ptr %0, i64 16
  %14 = load ptr, ptr %13, align 8, !tbaa !21
  %15 = tail call i32 @hide_panel(ptr noundef %14) #4
  %.not.i.i = icmp eq i32 %15, -1
  br i1 %.not.i.i, label %16, label %_curses_panel_panel_hide_impl.exit

16:                                               ; preds = %11
  %17 = load ptr, ptr %12, align 8, !tbaa !9
  %18 = tail call ptr (ptr, ptr, ...) @PyErr_Format(ptr noundef %17, ptr noundef nonnull @.str.33, ptr noundef nonnull @.str.23) #4
  br label %_curses_panel_panel_hide_impl.exit

_curses_panel_panel_hide_impl.exit:               ; preds = %16, %11, %9
  %.0 = phi ptr [ null, %9 ], [ @_Py_NoneStruct, %11 ], [ null, %16 ]
  ret ptr %.0
}